target datalayout = "e-m:e-p270:32:32-p271:32:32-p272:64:64-i64:64-i128:128-f80:128-n8:16:32:64-S128"
target triple = "x86_64-pc-linux-gnu"

%struct.association_sanity_check_t = type { i8, i8, i8, i8, i32, i16, ptr, ptr, i8 }

@hf_ieee80211_mesh_ampe_encrypted_data = internal global i32 0, align 4
@hf_ieee80211_fils_encrypted_data = internal global i32 0, align 4
@hf_ieee80211_wfa_rsn_or_link_kde_link_id = internal global i32 0, align 4
@beacon_padding = internal global i32 0, align 4

; Function Attrs: null_pointer_is_valid sspstrong uwtable
define hidden i32 @add_tagged_field(ptr noundef %0, ptr noundef %1, ptr noundef %2, i32 noundef %3, i32 noundef %4, ptr noundef %5, i32 noundef %6, ptr noundef %7) #1 {
  %9 = alloca ptr, align 8
  %10 = alloca ptr, align 8
  %11 = alloca ptr, align 8
  %12 = alloca i32, align 4
  %13 = alloca i32, align 4
  %14 = alloca ptr, align 8
  %15 = alloca i32, align 4
  %16 = alloca ptr, align 8
  store ptr %0, ptr %9, align 8
  store ptr %1, ptr %10, align 8
  store ptr %2, ptr %11, align 8
  store i32 %3, ptr %12, align 4
  store i32 %4, ptr %13, align 4
  store ptr %5, ptr %14, align 8
  store i32 %6, ptr %15, align 4
  store ptr %7, ptr %16, align 8
  %17 = load ptr, ptr %9, align 8
  %18 = load ptr, ptr %10, align 8
  %19 = load ptr, ptr %11, align 8
  %20 = load i32, ptr %12, align 4
  %21 = load i32, ptr %13, align 4
  %22 = load ptr, ptr %14, align 8
  %23 = load i32, ptr %15, align 4
  %24 = load ptr, ptr %16, align 8
  %25 = call i32 @add_tagged_field_with_validation(ptr noundef %17, ptr noundef %18, ptr noundef %19, i32 noundef %20, i32 noundef %21, ptr noundef %22, i32 noundef %23, i1 noundef zeroext false, ptr noundef null, i32 noundef 0, i1 noundef zeroext false, ptr noundef %24)
  ret i32 %25
}

; Function Attrs: null_pointer_is_valid sspstrong uwtable
define internal void @ieee_80211_add_tagged_parameters(ptr noundef %0, i32 noundef %1, ptr noundef %2, ptr noundef %3, i32 noundef %4, i32 noundef %5, ptr noundef %6) #1 {
  %8 = alloca ptr, align 8
  %9 = alloca i32, align 4
  %10 = alloca ptr, align 8
  %11 = alloca ptr, align 8
  %12 = alloca i32, align 4
  %13 = alloca i32, align 4
  %14 = alloca ptr, align 8
  %15 = alloca i32, align 4
  %16 = alloca i8, align 1
  %17 = alloca i32, align 4
  store ptr %0, ptr %8, align 8
  store i32 %1, ptr %9, align 4
  store ptr %2, ptr %10, align 8
  store ptr %3, ptr %11, align 8
  store i32 %4, ptr %12, align 4
  store i32 %5, ptr %13, align 4
  store ptr %6, ptr %14, align 8
  call void @llvm.lifetime.start.p0(i64 4, ptr %15) #19
  store i32 0, ptr @beacon_padding, align 4
  br label %18

18:                                               ; preds = %84, %7
  %19 = load i32, ptr %12, align 4
  %20 = icmp sgt i32 %19, 0
  br i1 %20, label %21, label %85

21:                                               ; preds = %18
  call void @llvm.lifetime.start.p0(i64 1, ptr %16) #19
  %22 = load ptr, ptr %8, align 8
  %23 = load i32, ptr %9, align 4
  %24 = call zeroext i8 @tvb_get_uint8(ptr noundef %22, i32 noundef %23)
  store i8 %24, ptr %16, align 1
  %25 = load ptr, ptr %10, align 8
  %26 = load ptr, ptr %11, align 8
  %27 = load ptr, ptr %8, align 8
  %28 = load i32, ptr %9, align 4
  %29 = load i32, ptr %13, align 4
  %30 = load ptr, ptr %14, align 8
  %31 = call i32 @add_tagged_field(ptr noundef %25, ptr noundef %26, ptr noundef %27, i32 noundef %28, i32 noundef %29, ptr noundef null, i32 noundef 0, ptr noundef %30)
  store i32 %31, ptr %15, align 4
  %32 = icmp eq i32 %31, 0
  br i1 %32, label %33, label %34

33:                                               ; preds = %21
  store i32 3, ptr %17, align 4
  br label %82

34:                                               ; preds = %21
  %35 = load i32, ptr %15, align 4
  %36 = load i32, ptr %12, align 4
  %37 = icmp sgt i32 %35, %36
  br i1 %37, label %38, label %40

38:                                               ; preds = %34
  %39 = load i32, ptr %12, align 4
  store i32 %39, ptr %15, align 4
  br label %40

40:                                               ; preds = %38, %34
  %41 = load i32, ptr %15, align 4
  %42 = load i32, ptr %9, align 4
  %43 = add i32 %42, %41
  store i32 %43, ptr %9, align 4
  %44 = load i32, ptr %15, align 4
  %45 = load i32, ptr %12, align 4
  %46 = sub i32 %45, %44
  store i32 %46, ptr %12, align 4
  %47 = load ptr, ptr %14, align 8
  %48 = icmp ne ptr %47, null
  br i1 %48, label %49, label %61

49:                                               ; preds = %40
  %50 = load ptr, ptr %14, align 8
  %51 = getelementptr inbounds nuw %struct.association_sanity_check_t, ptr %50, i32 0, i32 3
  %52 = load i8, ptr %51, align 1, !range !6, !noundef !7
  %53 = trunc i8 %52 to i1
  br i1 %53, label %54, label %61

54:                                               ; preds = %49
  %55 = load ptr, ptr %11, align 8
  %56 = load i32, ptr @hf_ieee80211_fils_encrypted_data, align 4
  %57 = load ptr, ptr %8, align 8
  %58 = load i32, ptr %9, align 4
  %59 = load i32, ptr %12, align 4
  %60 = call ptr @proto_tree_add_item(ptr noundef %55, i32 noundef %56, ptr noundef %57, i32 noundef %58, i32 noundef %59, i32 noundef 0)
  store i32 3, ptr %17, align 4
  br label %82

61:                                               ; preds = %49, %40
  %62 = load i8, ptr %16, align 1
  %63 = zext i8 %62 to i32
  %64 = icmp eq i32 %63, 140
  br i1 %64, label %65, label %81

65:                                               ; preds = %61
  %66 = load ptr, ptr %14, align 8
  %67 = icmp ne ptr %66, null
  br i1 %67, label %68, label %81

68:                                               ; preds = %65
  %69 = load ptr, ptr %14, align 8
  %70 = getelementptr inbounds nuw %struct.association_sanity_check_t, ptr %69, i32 0, i32 8
  %71 = load i8, ptr %70, align 8
  %72 = zext i8 %71 to i32
  %73 = icmp ne i32 %72, 0
  br i1 %73, label %74, label %81

74:                                               ; preds = %68
  %75 = load ptr, ptr %11, align 8
  %76 = load i32, ptr @hf_ieee80211_mesh_ampe_encrypted_data, align 4
  %77 = load ptr, ptr %8, align 8
  %78 = load i32, ptr %9, align 4
  %79 = load i32, ptr %12, align 4
  %80 = call ptr @proto_tree_add_item(ptr noundef %75, i32 noundef %76, ptr noundef %77, i32 noundef %78, i32 noundef %79, i32 noundef 0)
  store i32 3, ptr %17, align 4
  br label %82

81:                                               ; preds = %68, %65, %61
  store i32 0, ptr %17, align 4
  br label %82

82:                                               ; preds = %81, %74, %54, %33
  call void @llvm.lifetime.end.p0(i64 1, ptr %16) #19
  %83 = load i32, ptr %17, align 4
  switch i32 %83, label %86 [
    i32 0, label %84
    i32 3, label %85
  ]

84:                                               ; preds = %82
  br label %18, !llvm.loop !185

85:                                               ; preds = %82, %18
  call void @llvm.lifetime.end.p0(i64 4, ptr %15) #19
  ret void

86:                                               ; preds = %82
  unreachable
}

; Function Attrs: null_pointer_is_valid sspstrong uwtable
define internal i32 @dissect_wfa_rsn_override_link_kde(ptr noundef %0, ptr noundef %1, ptr noundef %2, ptr noundef %3) #1 {
  %5 = alloca ptr, align 8
  %6 = alloca ptr, align 8
  %7 = alloca ptr, align 8
  %8 = alloca ptr, align 8
  %9 = alloca i32, align 4
  %10 = alloca i32, align 4
  store ptr %0, ptr %5, align 8
  store ptr %1, ptr %6, align 8
  store ptr %2, ptr %7, align 8
  store ptr %3, ptr %8, align 8
  call void @llvm.lifetime.start.p0(i64 4, ptr %9) #19
  %11 = load ptr, ptr %5, align 8
  %12 = call i32 @tvb_reported_length(ptr noundef %11)
  store i32 %12, ptr %9, align 4
  call void @llvm.lifetime.start.p0(i64 4, ptr %10) #19
  store i32 0, ptr %10, align 4
  %13 = load ptr, ptr %7, align 8
  %14 = load i32, ptr @hf_ieee80211_wfa_rsn_or_link_kde_link_id, align 4
  %15 = load ptr, ptr %5, align 8
  %16 = load i32, ptr %10, align 4
  %17 = call ptr @proto_tree_add_item(ptr noundef %13, i32 noundef %14, ptr noundef %15, i32 noundef %16, i32 noundef 1, i32 noundef 0)
  %18 = load i32, ptr %10, align 4
  %19 = add i32 %18, 1
  store i32 %19, ptr %10, align 4
  %20 = load ptr, ptr %5, align 8
  %21 = load i32, ptr %10, align 4
  %22 = load ptr, ptr %6, align 8
  %23 = load ptr, ptr %7, align 8
  %24 = load i32, ptr %9, align 4
  %25 = sub i32 %24, 1
  call void @ieee_80211_add_tagged_parameters(ptr noundef %20, i32 noundef %21, ptr noundef %22, ptr noundef %23, i32 noundef %25, i32 noundef -1, ptr noundef null)
  %26 = load i32, ptr %9, align 4
  call void @llvm.lifetime.end.p0(i64 4, ptr %10) #19
  call void @llvm.lifetime.end.p0(i64 4, ptr %9) #19
  ret i32 %26
}