; Function Attrs: null_pointer_is_valid sspstrong uwtable
define internal i32 @dissect_wfa_rsn_override_link_kde(ptr noundef %0, ptr noundef %1, ptr noundef %2, ptr readnone captures(none) %3) #2 {
  %5 = tail call i32 @tvb_reported_length(ptr noundef %0)
  %6 = load i32, ptr @hf_ieee80211_wfa_rsn_or_link_kde_link_id, align 4
  %7 = tail call ptr @proto_tree_add_item(ptr noundef %2, i32 noundef %6, ptr noundef %0, i32 noundef 0, i32 noundef 1, i32 noundef 0)
  %8 = add i32 %5, -1
  store i32 0, ptr @beacon_padding, align 4
  %9 = icmp sgt i32 %8, 0
  br i1 %9, label %.lr.ph.split.us.i, label %ieee_80211_add_tagged_parameters.exit

.lr.ph.split.us.i:                                ; preds = %4, %.thread.us.i
  %.03048.us.i = phi i32 [ %13, %.thread.us.i ], [ 1, %4 ]
  %.03247.us.i = phi i32 [ %14, %.thread.us.i ], [ %8, %4 ]
  %10 = tail call zeroext i8 @tvb_get_uint8(ptr noundef %0, i32 noundef %.03048.us.i)
  %11 = tail call i32 @add_tagged_field_with_validation(ptr noundef %1, ptr noundef %2, ptr noundef %0, i32 noundef %.03048.us.i, i32 noundef -1, ptr noundef null, i32 noundef 0, i1 noundef zeroext false, ptr noundef null, i32 noundef 0, i1 noundef zeroext false, ptr noundef null)
  %12 = icmp eq i32 %11, 0
  br i1 %12, label %ieee_80211_add_tagged_parameters.exit, label %.thread.us.i

.thread.us.i:                                     ; preds = %.lr.ph.split.us.i
  %spec.select.us.i = tail call i32 @llvm.smin.i32(i32 %11, i32 %.03247.us.i)
  %13 = add i32 %spec.select.us.i, %.03048.us.i
  %14 = sub i32 %.03247.us.i, %spec.select.us.i
  %15 = icmp sgt i32 %14, 0
  br i1 %15, label %.lr.ph.split.us.i, label %ieee_80211_add_tagged_parameters.exit

ieee_80211_add_tagged_parameters.exit:            ; preds = %.lr.ph.split.us.i, %.thread.us.i, %4
  ret i32 %5
}